target datalayout = "e-m:e-p270:32:32-p271:32:32-p272:64:64-i64:64-i128:128-f80:128-n8:16:32:64-S128"
target triple = "x86_64-pc-linux-gnu"

%struct.redisServer = type { i32, i64, ptr, ptr, ptr, i32, i32, i32, i32, i32, ptr, ptr, ptr, ptr, ptr, i32, i32, i32, i32, i64, i32, i32, i32, i32, ptr, i32, i32, [41 x i8], i32, i64, i32, i32, i32, ptr, ptr, i32, i32, i64, ptr, ptr, ptr, ptr, [2 x i32], i32, i32, i32, i32, i32, i32, [16 x ptr], i32, ptr, ptr, i32, [8 x %struct.connListener], i32, %struct.connListener, ptr, ptr, ptr, ptr, ptr, ptr, ptr, ptr, ptr, ptr, i32, ptr, i32, ptr, [3 x %struct.pause_event], [256 x i8], ptr, i64, i32, i32, [128 x i32], i32, i32, i64, i32, i32, i32, i32, i32, i64, i64, i64, i64, i64, i64, i64, i64, i64, i64, double, i64, i64, i64, i64, i64, i64, i64, i64, i64, i64, i64, i64, i64, i64, i64, i64, i64, i64, i64, i64, i64, double, i64, i64, i64, i64, i64, ptr, i64, i64, i64, %struct.malloc_stats, i64, i64, i64, i64, i64, i64, i64, i64, i64, i64, i64, i64, double, [4 x i64], i64, i64, i64, i64, [128 x i64], [128 x i64], i64, i64, [7 x %struct.anon], i64, i64, i64, i64, i64, i64, [4 x %struct.durationStats], i32, i32, i32, i32, i32, i32, i32, i32, i32, i32, i32, i32, i64, i32, i32, i32, i32, i64, i64, i32, i32, i32, i32, i32, ptr, [3 x %struct.clientBufferLimitsConfig], i32, i32, i32, ptr, i32, i32, i32, i32, i32, i32, ptr, ptr, i32, i32, i64, i64, i64, i64, i64, i32, i32, ptr, i32, i32, i64, i64, i64, i64, i64, i32, i32, i64, i32, i32, i32, i32, i32, i32, i32, i32, ptr, i32, i64, i64, i64, i64, i32, ptr, i32, ptr, i32, i32, i32, i64, i64, i64, i64, i32, i32, i32, i32, i32, i32, ptr, i32, i32, ptr, i32, i32, i32, [2 x i32], i32, %struct.redisOpArray, i32, ptr, i32, ptr, i32, i32, i32, i32, i32, i32, i32, [41 x i8], [41 x i8], i64, i64, i64, i64, i32, i32, ptr, i64, i64, %struct.replDataBuf, i64, i64, i32, i32, i32, i32, i32, i32, i32, i32, i32, i64, ptr, i64, ptr, ptr, ptr, i32, i32, ptr, ptr, i32, i32, i32, i64, i64, i64, i64, ptr, ptr, i32, ptr, i64, i32, i32, i32, i64, i32, i32, i32, i32, ptr, i32, i32, [41 x i8], i64, i32, ptr, i32, i32, i64, i64, i32, i32, i32, i32, i32, i64, [3 x i32], i32, i32, i32, [10 x i32], ptr, ptr, i32, i64, ptr, ptr, i32, i32, i32, i32, i64, i64, i64, i64, i64, i64, i64, i64, i64, i64, i32, i32, i64, i64, i32, i64, i64, i64, i64, i64, ptr, ptr, i32, ptr, i32, i32, i32, i32, i64, i64, ptr, ptr, i32, i32, i32, i32, i32, ptr, ptr, ptr, i32, i32, i32, i32, i32, i32, i32, i64, i32, i32, i64, i32, i32, i32, i32, i32, i32, i32, i64, ptr, ptr, i64, ptr, i32, %struct.aclInfo, i32, i64, i32, i32, i32, %struct.redisTLSContextConfig, ptr, ptr, ptr, ptr, ptr, i64, i32, ptr, i32, i32, i32, i64, i32, ptr }
%struct.connListener = type { [16 x i32], i32, ptr, i32, i32, ptr, ptr }
%struct.pause_event = type { i32, i64 }
%struct.malloc_stats = type { i64, i64, i64, i64, i64, i64, i64, i64, i64, i64, i64 }
%struct.anon = type { i64, i64, [16 x i64], i32 }
%struct.durationStats = type { i64, i64, i64 }
%struct.clientBufferLimitsConfig = type { i64, i64, i64 }
%struct.redisOpArray = type { ptr, i32, i32 }
%struct.replDataBuf = type { ptr, i64, i64, i64, i64 }
%struct.aclInfo = type { i64, i64, i64, i64 }
%struct.redisTLSContextConfig = type { ptr, ptr, ptr, ptr, ptr, ptr, ptr, ptr, ptr, ptr, ptr, ptr, i32, i32, i32, i32 }
%struct.redisDb = type { ptr, ptr, ptr, ptr, ptr, ptr, ptr, i32, i64, i64, ptr }

@server = external global %struct.redisServer, align 8

; Function Attrs: nounwind uwtable
define dso_local i32 @dbSwapDatabases(i32 noundef %0, i32 noundef %1) #0 {
  %3 = alloca i32, align 4
  %4 = alloca i32, align 4
  %5 = alloca i32, align 4
  %6 = alloca %struct.redisDb, align 8
  %7 = alloca ptr, align 8
  %8 = alloca ptr, align 8
  store i32 %0, ptr %4, align 4, !tbaa !14
  store i32 %1, ptr %5, align 4, !tbaa !14
  %9 = load i32, ptr %4, align 4, !tbaa !14
  %10 = icmp slt i32 %9, 0
  br i1 %10, label %22, label %11

11:                                               ; preds = %2
  %12 = load i32, ptr %4, align 4, !tbaa !14
  %13 = load i32, ptr getelementptr inbounds nuw (%struct.redisServer, ptr @server, i32 0, i32 178), align 8, !tbaa !91
  %14 = icmp sge i32 %12, %13
  br i1 %14, label %22, label %15

15:                                               ; preds = %11
  %16 = load i32, ptr %5, align 4, !tbaa !14
  %17 = icmp slt i32 %16, 0
  br i1 %17, label %22, label %18

18:                                               ; preds = %15
  %19 = load i32, ptr %5, align 4, !tbaa !14
  %20 = load i32, ptr getelementptr inbounds nuw (%struct.redisServer, ptr @server, i32 0, i32 178), align 8, !tbaa !91
  %21 = icmp sge i32 %19, %20
  br i1 %21, label %22, label %23

22:                                               ; preds = %18, %15, %11, %2
  store i32 -1, ptr %3, align 4
  br label %96

23:                                               ; preds = %18
  %24 = load i32, ptr %4, align 4, !tbaa !14
  %25 = load i32, ptr %5, align 4, !tbaa !14
  %26 = icmp eq i32 %24, %25
  br i1 %26, label %27, label %28

27:                                               ; preds = %23
  store i32 0, ptr %3, align 4
  br label %96

28:                                               ; preds = %23
  call void @llvm.lifetime.start.p0(i64 88, ptr %6) #15
  %29 = load ptr, ptr getelementptr inbounds nuw (%struct.redisServer, ptr @server, i32 0, i32 10), align 8, !tbaa !99
  %30 = load i32, ptr %4, align 4, !tbaa !14
  %31 = sext i32 %30 to i64
  %32 = getelementptr inbounds %struct.redisDb, ptr %29, i64 %31
  call void @llvm.memcpy.p0.p0.i64(ptr align 8 %6, ptr align 8 %32, i64 88, i1 false), !tbaa.struct !193
  call void @llvm.lifetime.start.p0(i64 8, ptr %7) #15
  %33 = load ptr, ptr getelementptr inbounds nuw (%struct.redisServer, ptr @server, i32 0, i32 10), align 8, !tbaa !99
  %34 = load i32, ptr %4, align 4, !tbaa !14
  %35 = sext i32 %34 to i64
  %36 = getelementptr inbounds %struct.redisDb, ptr %33, i64 %35
  store ptr %36, ptr %7, align 8, !tbaa !12
  call void @llvm.lifetime.start.p0(i64 8, ptr %8) #15
  %37 = load ptr, ptr getelementptr inbounds nuw (%struct.redisServer, ptr @server, i32 0, i32 10), align 8, !tbaa !99
  %38 = load i32, ptr %5, align 4, !tbaa !14
  %39 = sext i32 %38 to i64
  %40 = getelementptr inbounds %struct.redisDb, ptr %37, i64 %39
  store ptr %40, ptr %8, align 8, !tbaa !12
  %41 = load ptr, ptr %7, align 8, !tbaa !12
  %42 = load ptr, ptr %8, align 8, !tbaa !12
  call void @touchAllWatchedKeysInDb(ptr noundef %41, ptr noundef %42)
  %43 = load ptr, ptr %8, align 8, !tbaa !12
  %44 = load ptr, ptr %7, align 8, !tbaa !12
  call void @touchAllWatchedKeysInDb(ptr noundef %43, ptr noundef %44)
  %45 = load ptr, ptr %7, align 8, !tbaa !12
  %46 = load ptr, ptr %8, align 8, !tbaa !12
  call void @scanDatabaseForDeletedKeys(ptr noundef %45, ptr noundef %46)
  %47 = load ptr, ptr %8, align 8, !tbaa !12
  %48 = load ptr, ptr %7, align 8, !tbaa !12
  call void @scanDatabaseForDeletedKeys(ptr noundef %47, ptr noundef %48)
  %49 = load ptr, ptr %8, align 8, !tbaa !12
  %50 = getelementptr inbounds nuw %struct.redisDb, ptr %49, i32 0, i32 0
  %51 = load ptr, ptr %50, align 8, !tbaa !16
  %52 = load ptr, ptr %7, align 8, !tbaa !12
  %53 = getelementptr inbounds nuw %struct.redisDb, ptr %52, i32 0, i32 0
  store ptr %51, ptr %53, align 8, !tbaa !16
  %54 = load ptr, ptr %8, align 8, !tbaa !12
  %55 = getelementptr inbounds nuw %struct.redisDb, ptr %54, i32 0, i32 1
  %56 = load ptr, ptr %55, align 8, !tbaa !88
  %57 = load ptr, ptr %7, align 8, !tbaa !12
  %58 = getelementptr inbounds nuw %struct.redisDb, ptr %57, i32 0, i32 1
  store ptr %56, ptr %58, align 8, !tbaa !88
  %59 = load ptr, ptr %8, align 8, !tbaa !12
  %60 = getelementptr inbounds nuw %struct.redisDb, ptr %59, i32 0, i32 2
  %61 = load ptr, ptr %60, align 8, !tbaa !101
  %62 = load ptr, ptr %7, align 8, !tbaa !12
  %63 = getelementptr inbounds nuw %struct.redisDb, ptr %62, i32 0, i32 2
  store ptr %61, ptr %63, align 8, !tbaa !101
  %64 = load ptr, ptr %8, align 8, !tbaa !12
  %65 = getelementptr inbounds nuw %struct.redisDb, ptr %64, i32 0, i32 8
  %66 = load i64, ptr %65, align 8, !tbaa !92
  %67 = load ptr, ptr %7, align 8, !tbaa !12
  %68 = getelementptr inbounds nuw %struct.redisDb, ptr %67, i32 0, i32 8
  store i64 %66, ptr %68, align 8, !tbaa !92
  %69 = load ptr, ptr %8, align 8, !tbaa !12
  %70 = getelementptr inbounds nuw %struct.redisDb, ptr %69, i32 0, i32 9
  %71 = load i64, ptr %70, align 8, !tbaa !93
  %72 = load ptr, ptr %7, align 8, !tbaa !12
  %73 = getelementptr inbounds nuw %struct.redisDb, ptr %72, i32 0, i32 9
  store i64 %71, ptr %73, align 8, !tbaa !93
  %74 = getelementptr inbounds nuw %struct.redisDb, ptr %6, i32 0, i32 0
  %75 = load ptr, ptr %74, align 8, !tbaa !16
  %76 = load ptr, ptr %8, align 8, !tbaa !12
  %77 = getelementptr inbounds nuw %struct.redisDb, ptr %76, i32 0, i32 0
  store ptr %75, ptr %77, align 8, !tbaa !16
  %78 = getelementptr inbounds nuw %struct.redisDb, ptr %6, i32 0, i32 1
  %79 = load ptr, ptr %78, align 8, !tbaa !88
  %80 = load ptr, ptr %8, align 8, !tbaa !12
  %81 = getelementptr inbounds nuw %struct.redisDb, ptr %80, i32 0, i32 1
  store ptr %79, ptr %81, align 8, !tbaa !88
  %82 = getelementptr inbounds nuw %struct.redisDb, ptr %6, i32 0, i32 2
  %83 = load ptr, ptr %82, align 8, !tbaa !101
  %84 = load ptr, ptr %8, align 8, !tbaa !12
  %85 = getelementptr inbounds nuw %struct.redisDb, ptr %84, i32 0, i32 2
  store ptr %83, ptr %85, align 8, !tbaa !101
  %86 = getelementptr inbounds nuw %struct.redisDb, ptr %6, i32 0, i32 8
  %87 = load i64, ptr %86, align 8, !tbaa !92
  %88 = load ptr, ptr %8, align 8, !tbaa !12
  %89 = getelementptr inbounds nuw %struct.redisDb, ptr %88, i32 0, i32 8
  store i64 %87, ptr %89, align 8, !tbaa !92
  %90 = getelementptr inbounds nuw %struct.redisDb, ptr %6, i32 0, i32 9
  %91 = load i64, ptr %90, align 8, !tbaa !93
  %92 = load ptr, ptr %8, align 8, !tbaa !12
  %93 = getelementptr inbounds nuw %struct.redisDb, ptr %92, i32 0, i32 9
  store i64 %91, ptr %93, align 8, !tbaa !93
  %94 = load ptr, ptr %7, align 8, !tbaa !12
  call void @scanDatabaseForReadyKeys(ptr noundef %94)
  %95 = load ptr, ptr %8, align 8, !tbaa !12
  call void @scanDatabaseForReadyKeys(ptr noundef %95)
  store i32 0, ptr %3, align 4
  call void @llvm.lifetime.end.p0(i64 8, ptr %8) #15
  call void @llvm.lifetime.end.p0(i64 8, ptr %7) #15
  call void @llvm.lifetime.end.p0(i64 88, ptr %6) #15
  br label %96

96:                                               ; preds = %28, %27, %22
  %97 = load i32, ptr %3, align 4
  ret i32 %97
}