; Function Attrs: nounwind uwtable
define dso_local range(i32 -1, 1) i32 @dbSwapDatabases(i32 noundef %0, i32 noundef %1) local_unnamed_addr #0 {
  %3 = icmp slt i32 %0, 0
  br i1 %3, label %25, label %4

4:                                                ; preds = %2
  %5 = load i32, ptr getelementptr inbounds nuw (i8, ptr @server, i64 6376), align 8, !tbaa !96
  %6 = icmp slt i32 %0, %5
  %7 = icmp sgt i32 %1, -1
  %or.cond.not42 = and i1 %7, %6
  %.not = icmp slt i32 %1, %5
  %or.cond39 = and i1 %.not, %or.cond.not42
  br i1 %or.cond39, label %8, label %25

8:                                                ; preds = %4
  %9 = icmp eq i32 %0, %1
  br i1 %9, label %25, label %10

10:                                               ; preds = %8
  %11 = load ptr, ptr getelementptr inbounds nuw (i8, ptr @server, i64 64), align 8, !tbaa !94
  %12 = zext nneg i32 %0 to i64
  %13 = getelementptr inbounds nuw %struct.redisDb, ptr %11, i64 %12
  %.sroa.0.0.copyload = load ptr, ptr %13, align 8, !tbaa !162
  %.sroa.4.0..sroa_idx = getelementptr inbounds nuw i8, ptr %13, i64 8
  %.sroa.4.0.copyload = load ptr, ptr %.sroa.4.0..sroa_idx, align 8, !tbaa !162
  %.sroa.5.0..sroa_idx = getelementptr inbounds nuw i8, ptr %13, i64 16
  %.sroa.5.0.copyload = load ptr, ptr %.sroa.5.0..sroa_idx, align 8, !tbaa !114
  %.sroa.626.0..sroa_idx = getelementptr inbounds nuw i8, ptr %13, i64 64
  %.sroa.626.0.copyload = load i64, ptr %.sroa.626.0..sroa_idx, align 8, !tbaa !144
  %.sroa.7.0..sroa_idx = getelementptr inbounds nuw i8, ptr %13, i64 72
  %.sroa.7.0.copyload = load i64, ptr %.sroa.7.0..sroa_idx, align 8, !tbaa !17
  %14 = zext nneg i32 %1 to i64
  %15 = getelementptr inbounds nuw %struct.redisDb, ptr %11, i64 %14
  tail call void @touchAllWatchedKeysInDb(ptr noundef nonnull %13, ptr noundef %15) #20
  tail call void @touchAllWatchedKeysInDb(ptr noundef %15, ptr noundef nonnull %13) #20
  tail call void @scanDatabaseForDeletedKeys(ptr noundef nonnull %13, ptr noundef %15)
  tail call void @scanDatabaseForDeletedKeys(ptr noundef %15, ptr noundef nonnull %13)
  %16 = load ptr, ptr %15, align 8, !tbaa !6
  store ptr %16, ptr %13, align 8, !tbaa !6
  %17 = getelementptr inbounds nuw i8, ptr %15, i64 8
  %18 = load ptr, ptr %17, align 8, !tbaa !72
  store ptr %18, ptr %.sroa.4.0..sroa_idx, align 8, !tbaa !72
  %19 = getelementptr inbounds nuw i8, ptr %15, i64 16
  %20 = load ptr, ptr %19, align 8, !tbaa !97
  store ptr %20, ptr %.sroa.5.0..sroa_idx, align 8, !tbaa !97
  %21 = getelementptr inbounds nuw i8, ptr %15, i64 64
  %22 = load i64, ptr %21, align 8, !tbaa !163
  store i64 %22, ptr %.sroa.626.0..sroa_idx, align 8, !tbaa !163
  %23 = getelementptr inbounds nuw i8, ptr %15, i64 72
  %24 = load i64, ptr %23, align 8, !tbaa !164
  store i64 %24, ptr %.sroa.7.0..sroa_idx, align 8, !tbaa !164
  store ptr %.sroa.0.0.copyload, ptr %15, align 8, !tbaa !6
  store ptr %.sroa.4.0.copyload, ptr %17, align 8, !tbaa !72
  store ptr %.sroa.5.0.copyload, ptr %19, align 8, !tbaa !97
  store i64 %.sroa.626.0.copyload, ptr %21, align 8, !tbaa !163
  store i64 %.sroa.7.0.copyload, ptr %23, align 8, !tbaa !164
  tail call void @scanDatabaseForReadyKeys(ptr noundef nonnull %13)
  tail call void @scanDatabaseForReadyKeys(ptr noundef nonnull %15)
  br label %25

25:                                               ; preds = %8, %2, %4, %10
  %.0 = phi i32 [ 0, %10 ], [ -1, %4 ], [ -1, %2 ], [ 0, %8 ]
  ret i32 %.0
}